  Validating architecture
  Validating sources
  Copying sources remotely
  C:\Users\Akihiro\Source\Repos\yurios\yurios\yurios\yurios.vcxproj
  C:\Users\Akihiro\Source\Repos\yurios\yurios\yurios\obj\x64\Release\yurios.log
  2 File(s) copied
  Invoking cd ~/projects && chmod +x yurios && cd yurios && make time
  make clean
  make[1]: Entering directory '/home/ubuntu/projects/yurios'
  rm -f ./dst/*.s
  rm -f ./dst/*.o
  rm -f ./dst/yuli.sys
  rm -f ./application/*.yx
  make[1]: Leaving directory '/home/ubuntu/projects/yurios'
  time make all
  make[1]: Entering directory '/home/ubuntu/projects/yurios'
  mkdir -p dst
  mkdir -p application
  cd drivers && make all
  make[2]: Entering directory '/home/ubuntu/projects/yurios/drivers'
  gcc -O0 -m32 -c -Wa,--32 keyboard.c -nostdlib -Wl,--oformat=binary -fno-builtin -ffreestanding -Wall -nostdinc -o keyboard.o
  BUILD DRIVERS DIRECTORY
  cd ata && make all
  make[3]: Entering directory '/home/ubuntu/projects/yurios/drivers/ata'
  
  BUILD ATA DIRECTORY
  make[3]: Leaving directory '/home/ubuntu/projects/yurios/drivers/ata'
  cd mouse && make all
  make[3]: Entering directory '/home/ubuntu/projects/yurios/drivers/mouse'
  gcc -O0 -m32 -c -Wa,--32 mouse.c -nostdlib -Wl,--oformat=binary -fno-builtin -ffreestanding -Wall -nostdinc -o ../mouse.o
  BUILD DRIVERS/MOUSE DIRECTORY
  make[3]: Leaving directory '/home/ubuntu/projects/yurios/drivers/mouse'
  ld -melf_i386 -r keyboard.o mouse.o ata_init.o ata_write.o ata_read.o ata_back.o prepare_wr.o -o ~/projects/yurios/dst/drivers.o
  rm *.o
  make[2]: Leaving directory '/home/ubuntu/projects/yurios/drivers'
  cd boot && make all
  make[2]: Entering directory '/home/ubuntu/projects/yurios/boot'
  nasm ipl.asm -o ipl.bin
  nasm asmhead.asm -o asmhead.bin
  make[2]: Leaving directory '/home/ubuntu/projects/yurios/boot'
  cd kernel && make all
  make[2]: Entering directory '/home/ubuntu/projects/yurios/kernel'
  start.c: In function ‘task_b_main’:
  start.c: In function ‘task_b_main’:
  start.c:140:6: warning: variable ‘i’ set but not used [-Wunused-but-set-variable]
    int i = 0, fifo_buf[128], count = 0;
        ^
  start.c:140:6: warning: variable ‘i’ set but not used [-Wunused-but-set-variable]
    int i = 0, fifo_buf[128], count = 0;
        ^
  
  BUILD KERNEL DIRECTORY
  cd fs && make all
  make[3]: Entering directory '/home/ubuntu/projects/yurios/kernel/fs'
  
  BUILD FS DIRECTORY
  make[3]: Leaving directory '/home/ubuntu/projects/yurios/kernel/fs'
  
  cd sysc && make all
  make[3]: Entering directory '/home/ubuntu/projects/yurios/kernel/sysc'
  BUILD SYSC DIRECTORY
  make[3]: Leaving directory '/home/ubuntu/projects/yurios/kernel/sysc'
  cd time && make all
  make[3]: Entering directory '/home/ubuntu/projects/yurios/kernel/time'
  In file included from ../../include/types.h:4:0,
                   from ../../include/kernel.h:4,
                   from timer.c:1:
  timer.c: In function ‘timer_alloc’:
  In file included from ../../include/types.h:4:0,
                   from ../../include/kernel.h:4,
                   from timer.c:1:
  timer.c: In function ‘timer_alloc’:
  ../../include/value.h:94:17: warning: return makes pointer from integer without a cast [-Wint-conversion]
   #define FAILURE -1
                   ^
  timer.c:173:9: note: in expansion of macro ‘FAILURE’
    return FAILURE;
           ^
  ../../include/value.h:94:17: warning: return makes pointer from integer without a cast [-Wint-conversion]
   #define FAILURE -1
                   ^
  timer.c:173:9: note: in expansion of macro ‘FAILURE’
    return FAILURE;
           ^
  BUILD KERNEL/TIME DIRECTORY
  make[3]: Leaving directory '/home/ubuntu/projects/yurios/kernel/time'
  cd proc && make all
  make[3]: Entering directory '/home/ubuntu/projects/yurios/kernel/proc'
  In file included from ../../include/types.h:4:0,
                   from ../../include/kernel.h:4,
                   from mtask.c:1:
  mtask.c: In function ‘task_alloc’:
  In file included from ../../include/types.h:4:0,
                   from ../../include/kernel.h:4,
                   from mtask.c:1:
  mtask.c: In function ‘task_alloc’:
  ../../include/value.h:94:17: warning: return makes pointer from integer without a cast [-Wint-conversion]
   #define FAILURE -1
                   ^
  mtask.c:135:9: note: in expansion of macro ‘FAILURE’
    return FAILURE;
           ^
  ../../include/value.h:94:17: warning: return makes pointer from integer without a cast [-Wint-conversion]
   #define FAILURE -1
                   ^
  mtask.c:135:9: note: in expansion of macro ‘FAILURE’
    return FAILURE;
           ^
  
  BUILD KERNEL/PROC DIRECTORY
  rm -f *.o
  make[3]: Leaving directory '/home/ubuntu/projects/yurios/kernel/proc'
  cd cxx && make all
  make[3]: Entering directory '/home/ubuntu/projects/yurios/kernel/cxx'
  BUILD CXX DIRECTORY
  make[3]: Leaving directory '/home/ubuntu/projects/yurios/kernel/cxx'
  rm -f *.o
  make[2]: Leaving directory '/home/ubuntu/projects/yurios/kernel'
  cd yrsh && make all
  make[2]: Entering directory '/home/ubuntu/projects/yurios/yrsh'
  
  BUILD YRSH DIRECTORY
  cd script && make all
  make[3]: Entering directory '/home/ubuntu/projects/yurios/yrsh/script'
  
  BUILD YRSH/SCRIPT DIRECTORY
  make[3]: Leaving directory '/home/ubuntu/projects/yurios/yrsh/script'
  make[2]: Leaving directory '/home/ubuntu/projects/yurios/yrsh'
  cd lib && make all
  make[2]: Entering directory '/home/ubuntu/projects/yurios/lib'
  BUILD LIB DIRECTORY
  cd yuric && make all
  make[3]: Entering directory '/home/ubuntu/projects/yurios/lib/yuric'
  BUILD YURIC DIRECTORY
  make[3]: Leaving directory '/home/ubuntu/projects/yurios/lib/yuric'
  cd math && make all
  make[3]: Entering directory '/home/ubuntu/projects/yurios/lib/math'
  BUILD MATH DIRECTORY
  mv *.o ..
  make[3]: Leaving directory '/home/ubuntu/projects/yurios/lib/math'
  cd yuri && make all
  make[3]: Entering directory '/home/ubuntu/projects/yurios/lib/yuri'
  
  cd file && make all
  make[4]: Entering directory '/home/ubuntu/projects/yurios/lib/yuri/file'
  
  BUILD YURI/FILE DIRECTORY
  make[4]: Leaving directory '/home/ubuntu/projects/yurios/lib/yuri/file'
  BUILD YURI DIRECTORY
  make[3]: Leaving directory '/home/ubuntu/projects/yurios/lib/yuri'
  cd string && make all
  make[3]: Entering directory '/home/ubuntu/projects/yurios/lib/string'
  BUILD STRING DIRECTORY
  make[3]: Leaving directory '/home/ubuntu/projects/yurios/lib/string'
  cd yuri_app && make all
  make[3]: Entering directory '/home/ubuntu/projects/yurios/lib/yuri_app'
  gcc -O0 -m32 -c -Wa,--32,-a,-ad cli.c -nostdlib -Wl,--oformat=binary -fno-builtin -ffreestanding -Wall -nostdinc -o cli.o > ~/projects/yurios/dst/cli.lst
  gcc -O0 -m32 -c -Wa,--32,-a,-ad cli_app2.c -nostdlib -Wl,--oformat=binary -fno-builtin -ffreestanding -Wall -nostdinc -o cli_app2.o > ~/projects/yurios/dst/cli_app2.lst
  cli_app2.c: In function ‘main’:
  cli_app2.c: In function ‘main’:
  cli_app2.c:24:1: warning: control reaches end of non-void function [-Wreturn-type]
   }
   ^
  cli_app2.c:24:1: warning: control reaches end of non-void function [-Wreturn-type]
   }
   ^
  gcc -O0 -m32 -c -Wa,--32,-a,-ad rename.c -nostdlib -Wl,--oformat=binary -fno-builtin -ffreestanding -Wall -nostdinc -o rename.o > ~/projects/yurios/dst/rename.lst
  rename.c: In function ‘main’:
  rename.c: In function ‘main’:
  rename.c:17:1: warning: control reaches end of non-void function [-Wreturn-type]
   }
   ^
  rename.c:17:1: warning: control reaches end of non-void function [-Wreturn-type]
   }
   ^
  BUILD YURI_APP DIRECTORY
  BUILD libyuri.a
  ar rcs libyuri.a ~/projects/yurios/dst/yrsysc.o ~/projects/yurios/dst/print.o ~/projects/yurios/dst/strlib.o ~/projects/yurios/dst/entry.o
  ld -melf_i386 -o ../../application/cli.yx --script=../../ls/app.lds cli.o libyuri.a --nmagic -Map ~/projects/yurios/dst/cli.map
  
  ld -melf_i386 -o ../../application/cli_app2.yx --script=../../ls/app.lds cli_app2.o libyuri.a --nmagic -Map ~/projects/yurios/dst/cli_app2.map
  ld -melf_i386 -o ../../application/rename.yx --script=../../ls/app.lds rename.o libyuri.a --nmagic -Map ~/projects/yurios/dst/rename.map
  mv *.a ~/projects/yurios/dst
  cd yrs && make all
  make[4]: Entering directory '/home/ubuntu/projects/yurios/lib/yuri_app/yrs'
  main.c: In function ‘main’:
  main.c: In function ‘main’:
  main.c:42:1: warning: control reaches end of non-void function [-Wreturn-type]
   }
   ^
  main.c:42:1: warning: control reaches end of non-void function [-Wreturn-type]
   }
   ^
  GAS LISTING /tmp/ccB2Tor9.s 			page 1
  
  
     1              		.file	"main.c"
     2              		.section	.rodata
     3              	.LC0:
     4 0000 71756974 		.string	"quit"
     4      00
     5              	.LC1:
     6 0005 7072696E 		.string	"print"
     6      7400
     7              	.LC2:
     8 000b 556E6B6E 		.string	"Unknown identifier."
     8      6F776E20 
     8      6964656E 
     8      74696669 
     8      65722E00 
     9              		.text
    10              		.globl	main
    12              	main:
    13              	.LFB0:
    14              		.cfi_startproc
    15 0000 8D4C2404 		leal	4(%esp), %ecx
    16              		.cfi_def_cfa 1, 0
    17 0004 83E4F0   		andl	$-16, %esp
    18 0007 FF71FC   		pushl	-4(%ecx)
    19 000a 55       		pushl	%ebp
    20              		.cfi_escape 0x10,0x5,0x2,0x75,0
    21 000b 89E5     		movl	%esp, %ebp
    22 000d 51       		pushl	%ecx
    23              		.cfi_escape 0xf,0x3,0x75,0x7c,0x6
    24 000e 83EC04   		subl	$4, %esp
    25              	.L10:
    26 0011 83EC04   		subl	$4, %esp
    27 0014 68000400 		pushl	$1024
    27      00
    28 0019 68000000 		pushl	$code.1080
    28      00
    29 001e 6AFF     		pushl	$-1
    30 0020 E8FCFFFF 		call	read
    30      FF
    31 0025 83C410   		addl	$16, %esp
    32 0028 83EC08   		subl	$8, %esp
    33 002b 68000400 		pushl	$identifier.1081
    33      00
    34 0030 68000000 		pushl	$code.1080
    34      00
    35 0035 E8FCFFFF 		call	string_getNext
    35      FF
    36 003a 83C410   		addl	$16, %esp
    37 003d 83EC08   		subl	$8, %esp
    38 0040 68000000 		pushl	$.LC0
    38      00
    39 0045 68000400 		pushl	$identifier.1081
    39      00
    40 004a E8FCFFFF 		call	strcmp
    40      FF
    41 004f 83C410   		addl	$16, %esp
    42 0052 85C0     		testl	%eax, %eax
    43 0054 757B     		jne	.L12
  GAS LISTING /tmp/ccB2Tor9.s 			page 2
  
  
    44 0056 83EC08   		subl	$8, %esp
    45 0059 68050000 		pushl	$.LC1
    45      00
    46 005e 68000400 		pushl	$identifier.1081
    46      00
    47 0063 E8FCFFFF 		call	strcmp
    47      FF
    48 0068 83C410   		addl	$16, %esp
    49 006b 85C0     		testl	%eax, %eax
    50 006d 744D     		je	.L4
    51 006f 0FB60518 		movzbl	times_flag.1083, %eax
    51      040000
    52 0076 84C0     		testb	%al, %al
    53 0078 742D     		je	.L5
    54 007a EB1D     		jmp	.L6
    55              	.L7:
    56 007c 83EC0C   		subl	$12, %esp
    57 007f 68000000 		pushl	$code.1080
    57      00
    58 0084 E8FCFFFF 		call	print_sc
    58      FF
    59 0089 83C410   		addl	$16, %esp
    60 008c A11C0400 		movl	times.1082, %eax
    60      00
    61 0091 83E801   		subl	$1, %eax
    62 0094 A31C0400 		movl	%eax, times.1082
    62      00
    63              	.L6:
    64 0099 A11C0400 		movl	times.1082, %eax
    64      00
    65 009e 85C0     		testl	%eax, %eax
    66 00a0 75DA     		jne	.L7
    67 00a2 E96AFFFF 		jmp	.L10
    67      FF
    68              	.L5:
    69 00a7 83EC0C   		subl	$12, %esp
    70 00aa 68000000 		pushl	$code.1080
    70      00
    71 00af E8FCFFFF 		call	print_sc
    71      FF
    72 00b4 83C410   		addl	$16, %esp
    73 00b7 E955FFFF 		jmp	.L10
    73      FF
    74              	.L4:
    75 00bc 83EC0C   		subl	$12, %esp
    76 00bf 680B0000 		pushl	$.LC2
    76      00
    77 00c4 E8FCFFFF 		call	puts
    77      FF
    78 00c9 83C410   		addl	$16, %esp
    79 00cc E940FFFF 		jmp	.L10
    79      FF
    80              	.L12:
    81 00d1 90       		nop
    82 00d2 83EC0C   		subl	$12, %esp
    83 00d5 6A00     		pushl	$0
    84 00d7 E8FCFFFF 		call	exit
  GAS LISTING /tmp/ccB2Tor9.s 			page 3
  
  
    84      FF
    85 00dc 83C410   		addl	$16, %esp
    86 00df 90       		nop
    87 00e0 8B4DFC   		movl	-4(%ebp), %ecx
    88              		.cfi_def_cfa 1, 0
    89 00e3 C9       		leave
    90              		.cfi_restore 5
    91 00e4 8D61FC   		leal	-4(%ecx), %esp
    92              		.cfi_def_cfa 4, 4
    93 00e7 C3       		ret
    94              		.cfi_endproc
    95              	.LFE0:
    97              		.globl	print_sc
    99              	print_sc:
   100              	.LFB1:
   101              		.cfi_startproc
   102 00e8 55       		pushl	%ebp
   103              		.cfi_def_cfa_offset 8
   104              		.cfi_offset 5, -8
   105 00e9 89E5     		movl	%esp, %ebp
   106              		.cfi_def_cfa_register 5
   107 00eb 83EC08   		subl	$8, %esp
   108 00ee 83450806 		addl	$6, 8(%ebp)
   109 00f2 83EC0C   		subl	$12, %esp
   110 00f5 FF7508   		pushl	8(%ebp)
   111 00f8 E8FCFFFF 		call	puts
   111      FF
   112 00fd 83C410   		addl	$16, %esp
   113 0100 90       		nop
   114 0101 C9       		leave
   115              		.cfi_restore 5
   116              		.cfi_def_cfa 4, 4
   117 0102 C3       		ret
   118              		.cfi_endproc
   119              	.LFE1:
   121              		.local	code.1080
   122              		.comm	code.1080,1024,32
   123              		.local	identifier.1081
   124              		.comm	identifier.1081,24,4
   125              		.local	times_flag.1083
   126              		.comm	times_flag.1083,1,1
   127              		.local	times.1082
   128              		.comm	times.1082,4,4
   129              		.ident	"GCC: (Ubuntu 5.4.0-6ubuntu1~16.04.4) 5.4.0 20160609"
   130              		.section	.note.GNU-stack,"",@progbits
  GAS LISTING /tmp/ccB2Tor9.s 			page 4
  
  
  DEFINED SYMBOLS
                              *ABS*:0000000000000000 main.c
       /tmp/ccB2Tor9.s:12     .text:0000000000000000 main
       /tmp/ccB2Tor9.s:122    .bss:0000000000000000 code.1080
       /tmp/ccB2Tor9.s:124    .bss:0000000000000400 identifier.1081
       /tmp/ccB2Tor9.s:124    .bss:0000000000000418 times_flag.1083
       /tmp/ccB2Tor9.s:99     .text:00000000000000e8 print_sc
       /tmp/ccB2Tor9.s:128    .bss:000000000000041c times.1082
  
  UNDEFINED SYMBOLS
  read
  string_getNext
  strcmp
  puts
  exit
  BUILD YURISCRIPT DIRECTORY
  make[4]: Leaving directory '/home/ubuntu/projects/yurios/lib/yuri_app/yrs'
  cd elf_test && make all
  make[4]: Entering directory '/home/ubuntu/projects/yurios/lib/yuri_app/elf_test'
  In file included from main.c:1:0:
  ../../../include/yuri/stdio.h:10:6: warning: conflicting types for built-in function ‘puts’
   void puts(char *string);
        ^
  In file included from main.c:1:0:
  ../../../include/yuri/stdio.h:10:6: warning: conflicting types for built-in function ‘puts’
   void puts(char *string);
        ^
  GAS LISTING /tmp/ccfWr7Ai.s 			page 1
  
  
     1              		.file	"main.c"
     2              		.section	.rodata
     3              	.LC0:
     4 0000 41726763 		.string	"Argc test...OK"
     4      20746573 
     4      742E2E2E 
     4      4F4B00
     5              		.text
     6              		.globl	main
     8              	main:
     9              	.LFB0:
    10              		.cfi_startproc
    11 0000 8D4C2404 		leal	4(%esp), %ecx
    12              		.cfi_def_cfa 1, 0
    13 0004 83E4F0   		andl	$-16, %esp
    14 0007 FF71FC   		pushl	-4(%ecx)
    15 000a 55       		pushl	%ebp
    16              		.cfi_escape 0x10,0x5,0x2,0x75,0
    17 000b 89E5     		movl	%esp, %ebp
    18 000d 51       		pushl	%ecx
    19              		.cfi_escape 0xf,0x3,0x75,0x7c,0x6
    20 000e 83EC04   		subl	$4, %esp
    21 0011 89C8     		movl	%ecx, %eax
    22 0013 833801   		cmpl	$1, (%eax)
    23 0016 7510     		jne	.L2
    24 0018 83EC0C   		subl	$12, %esp
    25 001b 68000000 		pushl	$.LC0
    25      00
    26 0020 E8FCFFFF 		call	puts
    26      FF
    27 0025 83C410   		addl	$16, %esp
    28              	.L2:
    29 0028 B8000000 		movl	$0, %eax
    29      00
    30 002d 8B4DFC   		movl	-4(%ebp), %ecx
    31              		.cfi_def_cfa 1, 0
    32 0030 C9       		leave
    33              		.cfi_restore 5
    34 0031 8D61FC   		leal	-4(%ecx), %esp
    35              		.cfi_def_cfa 4, 4
    36 0034 C3       		ret
    37              		.cfi_endproc
    38              	.LFE0:
    40              		.ident	"GCC: (Ubuntu 5.4.0-6ubuntu1~16.04.4) 5.4.0 20160609"
    41              		.section	.note.GNU-stack,"",@progbits
  GAS LISTING /tmp/ccfWr7Ai.s 			page 2
  
  
  DEFINED SYMBOLS
                              *ABS*:0000000000000000 main.c
       /tmp/ccfWr7Ai.s:8      .text:0000000000000000 main
  
  UNDEFINED SYMBOLS
  puts
  BUILD YURIAPP DIRECTORY
  make[4]: Leaving directory '/home/ubuntu/projects/yurios/lib/yuri_app/elf_test'
  cd parrot && make all
  make[4]: Entering directory '/home/ubuntu/projects/yurios/lib/yuri_app/parrot'
  In file included from main.c:2:0:
  ../../../include/yuri/stdio.h:10:6: warning: conflicting types for built-in function ‘puts’
   void puts(char *string);
        ^
  In file included from main.c:2:0:
  ../../../include/yuri/stdio.h:10:6: warning: conflicting types for built-in function ‘puts’
   void puts(char *string);
        ^
  main.c:4:5: warning: second argument of ‘main’ should be ‘char **’ [-Wmain]
   int main(int argc, char *argv){
       ^
  main.c:4:5: warning: second argument of ‘main’ should be ‘char **’ [-Wmain]
   int main(int argc, char *argv){
       ^
  GAS LISTING /tmp/cclMcObn.s 			page 1
  
  
     1              		.file	"main.c"
     2              		.text
     3              		.globl	main
     5              	main:
     6              	.LFB0:
     7              		.cfi_startproc
     8 0000 8D4C2404 		leal	4(%esp), %ecx
     9              		.cfi_def_cfa 1, 0
    10 0004 83E4F0   		andl	$-16, %esp
    11 0007 FF71FC   		pushl	-4(%ecx)
    12 000a 55       		pushl	%ebp
    13              		.cfi_escape 0x10,0x5,0x2,0x75,0
    14 000b 89E5     		movl	%esp, %ebp
    15 000d 51       		pushl	%ecx
    16              		.cfi_escape 0xf,0x3,0x75,0x7c,0x6
    17 000e 83EC14   		subl	$20, %esp
    18 0011 89C8     		movl	%ecx, %eax
    19 0013 83EC0C   		subl	$12, %esp
    20 0016 FF7004   		pushl	4(%eax)
    21 0019 E8FCFFFF 		call	puts
    21      FF
    22 001e 83C410   		addl	$16, %esp
    23 0021 83EC0C   		subl	$12, %esp
    24 0024 68800000 		pushl	$128
    24      00
    25 0029 E8FCFFFF 		call	malloc
    25      FF
    26 002e 83C410   		addl	$16, %esp
    27 0031 8945F4   		movl	%eax, -12(%ebp)
    28 0034 83EC04   		subl	$4, %esp
    29 0037 6A7F     		pushl	$127
    30 0039 FF75F4   		pushl	-12(%ebp)
    31 003c 6AFF     		pushl	$-1
    32 003e E8FCFFFF 		call	read
    32      FF
    33 0043 83C410   		addl	$16, %esp
    34 0046 83EC04   		subl	$4, %esp
    35 0049 6A7F     		pushl	$127
    36 004b FF75F4   		pushl	-12(%ebp)
    37 004e 6AFE     		pushl	$-2
    38 0050 E8FCFFFF 		call	write
    38      FF
    39 0055 83C410   		addl	$16, %esp
    40 0058 E8FCFFFF 		call	newline
    40      FF
    41 005d B8000000 		movl	$0, %eax
    41      00
    42 0062 8B4DFC   		movl	-4(%ebp), %ecx
    43              		.cfi_def_cfa 1, 0
    44 0065 C9       		leave
    45              		.cfi_restore 5
    46 0066 8D61FC   		leal	-4(%ecx), %esp
    47              		.cfi_def_cfa 4, 4
    48 0069 C3       		ret
    49              		.cfi_endproc
    50              	.LFE0:
    52              		.ident	"GCC: (Ubuntu 5.4.0-6ubuntu1~16.04.4) 5.4.0 20160609"
  GAS LISTING /tmp/cclMcObn.s 			page 2
  
  
    53              		.section	.note.GNU-stack,"",@progbits
  GAS LISTING /tmp/cclMcObn.s 			page 3
  
  
  DEFINED SYMBOLS
                              *ABS*:0000000000000000 main.c
       /tmp/cclMcObn.s:5      .text:0000000000000000 main
  
  UNDEFINED SYMBOLS
  puts
  malloc
  read
  write
  newline
  BUILD PARROT DIRECTORY
  make[4]: Leaving directory '/home/ubuntu/projects/yurios/lib/yuri_app/parrot'
  mv *.o ..
  make[3]: Leaving directory '/home/ubuntu/projects/yurios/lib/yuri_app'
  mv *.o ~/projects/yurios/dst
  make[2]: Leaving directory '/home/ubuntu/projects/yurios/lib'
  cd yrws && make all
  make[2]: Entering directory '/home/ubuntu/projects/yurios/yrws'
  cd core && make all
  make[3]: Entering directory '/home/ubuntu/projects/yurios/yrws/core'
  
  BUILD YRWS/CORE DIRECTORY
  make[3]: Leaving directory '/home/ubuntu/projects/yurios/yrws/core'
  cd layer && make all
  make[3]: Entering directory '/home/ubuntu/projects/yurios/yrws/layer'
  BUILD YRWS/LAYER DIRECTORY
  make[3]: Leaving directory '/home/ubuntu/projects/yurios/yrws/layer'
  cd lib && make all
  make[3]: Entering directory '/home/ubuntu/projects/yurios/yrws/lib'
  
  BUILD YRWS/LIB DIRECTORY
  make[3]: Leaving directory '/home/ubuntu/projects/yurios/yrws/lib'
  cd window && make all
  make[3]: Entering directory '/home/ubuntu/projects/yurios/yrws/window'
  BUILD YRWS/WINDOW DIRECTORY
  make[3]: Leaving directory '/home/ubuntu/projects/yurios/yrws/window'
  cd subs && make all
  make[3]: Entering directory '/home/ubuntu/projects/yurios/yrws/subs'
  cd clock && make all
  make[4]: Entering directory '/home/ubuntu/projects/yurios/yrws/subs/clock'
  BUILD YRWS/LIB DIRECTORY
  make[4]: Leaving directory '/home/ubuntu/projects/yurios/yrws/subs/clock'
  BUILD YRWS/LIB DIRECTORY
  make[3]: Leaving directory '/home/ubuntu/projects/yurios/yrws/subs'
  BUILD YRWS DIRECTORY
  make[2]: Leaving directory '/home/ubuntu/projects/yurios/yrws'
  ld -melf_i386 -o dst/boot.bin --script=ls/kernel.lds dst/kernel_kernel.o dst/drivers.o	dst/timer.o dst/yrsh.o dst/yurilib.o dst/string.o dst/string_buffer.o dst/sh_cmd.o dst/proc.o dst/fsize.o dst/basis.o dst/fork.o dst/display.o dst/yrfs.o dst/ope_new.o dst/read.o dst/write.o dst/sleep.o dst/get_clock.o dst/fat_getsize.o dst/set_clock.o dst/yrws.o dst/addsmt.o dst/mem_read.o dst/end.o dst/error.o
  cat dst/asmhead.bin dst/boot.bin > dst/yuli.sys
  mformat -f 1440 -C -B dst/ipl.bin -i yuli.img ::
  plain_io: Protocol error
  Trouble initializing a FAT sector
  plain_io: Protocol error
  Trouble initializing a FAT sector
  plain_io: Protocol error
  buffer_flush: write: Protocol error
  plain_io: Protocol error
  buffer_flush: write: Protocol error
  mcopy dst/yuli.sys -i yuli.img ::
  mcopy yuri_doc.txt -i yuli.img ::
  
  mcopy application/cli_app2.yx -i yuli.img ::
  mcopy application/rename.yx -i yuli.img ::
  mcopy application/elf_test.yx -i yuli.img ::
  mcopy application/parrot.yx -i yuli.img ::
  #mcopy yuri.yim -i yuli.img ::
  mcopy LICENSE -i yuli.img ::
  mcopy ex.sh -i yuli.img ::
  mcopy inityrfs.sh -i yuli.img ::
  make[1]: Leaving directory '/home/ubuntu/projects/yurios'
  1.84user 0.80system 0:05.65elapsed 46%CPU (0avgtext+0avgdata 21308maxresident)k
  0inputs+1232outputs (0major+284167minor)pagefaults 0swaps
  1.84user 0.80system 0:05.65elapsed 46%CPU (0avgtext+0avgdata 21308maxresident)k
  0inputs+1232outputs (0major+284167minor)pagefaults 0swaps
  
          1 file(s) copied.
